target datalayout = "e-m:e-p270:32:32-p271:32:32-p272:64:64-i64:64-i128:128-f80:128-n8:16:32:64-S128"
target triple = "x86_64-pc-linux-gnu"

%class.Effect = type <{ %"class.std::vector", %"class.std::vector", %"class.std::vector", i8, i8, [6 x i8] }>
%"class.std::vector" = type { %"struct.std::_Vector_base" }
%"struct.std::_Vector_base" = type { %"struct.std::_Vector_base<const Variable *, std::allocator<const Variable *>>::_Vector_impl" }
%"struct.std::_Vector_base<const Variable *, std::allocator<const Variable *>>::_Vector_impl" = type { %"struct.std::_Vector_base<const Variable *, std::allocator<const Variable *>>::_Vector_impl_data" }
%"struct.std::_Vector_base<const Variable *, std::allocator<const Variable *>>::_Vector_impl_data" = type { ptr, ptr, ptr }
%"struct.std::_Vector_base.13" = type { %"struct.std::_Vector_base<const Block *, std::allocator<const Block *>>::_Vector_impl" }
%"struct.std::_Vector_base<const Block *, std::allocator<const Block *>>::_Vector_impl" = type { %"struct.std::_Vector_base<const Block *, std::allocator<const Block *>>::_Vector_impl_data" }
%"struct.std::_Vector_base<const Block *, std::allocator<const Block *>>::_Vector_impl_data" = type { ptr, ptr, ptr }

; Function Attrs: mustprogress nounwind uwtable
define linkonce_odr dso_local noundef nonnull align 8 dereferenceable(8) ptr @_ZNSt6vectorIPK5BlockSaIS2_EEixEm(ptr noundef nonnull align 8 dereferenceable(24) %0, i64 noundef %1) #6 comdat align 2 {
  %3 = alloca ptr, align 8
  %4 = alloca i64, align 8
  store ptr %0, ptr %3, align 8, !tbaa !89
  store i64 %1, ptr %4, align 8, !tbaa !22
  %5 = load ptr, ptr %3, align 8
  %6 = getelementptr inbounds nuw %"struct.std::_Vector_base.13", ptr %5, i32 0, i32 0
  %7 = getelementptr inbounds nuw %"struct.std::_Vector_base<const Block *, std::allocator<const Block *>>::_Vector_impl_data", ptr %6, i32 0, i32 0
  %8 = load ptr, ptr %7, align 8, !tbaa !100
  %9 = load i64, ptr %4, align 8, !tbaa !22
  %10 = getelementptr inbounds nuw ptr, ptr %8, i64 %9
  ret ptr %10
}

; Function Attrs: mustprogress nounwind uwtable
define linkonce_odr dso_local noundef i64 @_ZNKSt6vectorIPK5BlockSaIS2_EE4sizeEv(ptr noundef nonnull align 8 dereferenceable(24) %0) #6 comdat align 2 {
  %2 = alloca ptr, align 8
  store ptr %0, ptr %2, align 8, !tbaa !89
  %3 = load ptr, ptr %2, align 8
  %4 = getelementptr inbounds nuw %"struct.std::_Vector_base.13", ptr %3, i32 0, i32 0
  %5 = getelementptr inbounds nuw %"struct.std::_Vector_base<const Block *, std::allocator<const Block *>>::_Vector_impl_data", ptr %4, i32 0, i32 1
  %6 = load ptr, ptr %5, align 8, !tbaa !97
  %7 = getelementptr inbounds nuw %"struct.std::_Vector_base.13", ptr %3, i32 0, i32 0
  %8 = getelementptr inbounds nuw %"struct.std::_Vector_base<const Block *, std::allocator<const Block *>>::_Vector_impl_data", ptr %7, i32 0, i32 0
  %9 = load ptr, ptr %8, align 8, !tbaa !100
  %10 = ptrtoint ptr %6 to i64
  %11 = ptrtoint ptr %9 to i64
  %12 = sub i64 %10, %11
  %13 = sdiv exact i64 %12, 8
  ret i64 %13
}

; Function Attrs: mustprogress nounwind uwtable
define linkonce_odr dso_local noundef nonnull align 8 dereferenceable(8) ptr @_ZNKSt6vectorIPK8VariableSaIS2_EEixEm(ptr noundef nonnull align 8 dereferenceable(24) %0, i64 noundef %1) #6 comdat align 2 {
  %3 = alloca ptr, align 8
  %4 = alloca i64, align 8
  store ptr %0, ptr %3, align 8, !tbaa !20
  store i64 %1, ptr %4, align 8, !tbaa !22
  %5 = load ptr, ptr %3, align 8
  %6 = getelementptr inbounds nuw %"struct.std::_Vector_base", ptr %5, i32 0, i32 0
  %7 = getelementptr inbounds nuw %"struct.std::_Vector_base<const Variable *, std::allocator<const Variable *>>::_Vector_impl_data", ptr %6, i32 0, i32 0
  %8 = load ptr, ptr %7, align 8, !tbaa !24
  %9 = load i64, ptr %4, align 8, !tbaa !22
  %10 = getelementptr inbounds nuw ptr, ptr %8, i64 %9
  ret ptr %10
}

; Function Attrs: mustprogress nounwind uwtable
define linkonce_odr dso_local noundef i64 @_ZNKSt6vectorIPK8VariableSaIS2_EE4sizeEv(ptr noundef nonnull align 8 dereferenceable(24) %0) #6 comdat align 2 {
  %2 = alloca ptr, align 8
  store ptr %0, ptr %2, align 8, !tbaa !20
  %3 = load ptr, ptr %2, align 8
  %4 = getelementptr inbounds nuw %"struct.std::_Vector_base", ptr %3, i32 0, i32 0
  %5 = getelementptr inbounds nuw %"struct.std::_Vector_base<const Variable *, std::allocator<const Variable *>>::_Vector_impl_data", ptr %4, i32 0, i32 1
  %6 = load ptr, ptr %5, align 8, !tbaa !25
  %7 = getelementptr inbounds nuw %"struct.std::_Vector_base", ptr %3, i32 0, i32 0
  %8 = getelementptr inbounds nuw %"struct.std::_Vector_base<const Variable *, std::allocator<const Variable *>>::_Vector_impl_data", ptr %7, i32 0, i32 0
  %9 = load ptr, ptr %8, align 8, !tbaa !24
  %10 = ptrtoint ptr %6 to i64
  %11 = ptrtoint ptr %9 to i64
  %12 = sub i64 %10, %11
  %13 = sdiv exact i64 %12, 8
  ret i64 %13
}

; Function Attrs: mustprogress uwtable
define dso_local void @_ZN6Effect19add_external_effectERKS_St6vectorIPK5BlockSaIS5_EE(ptr noundef nonnull align 8 dereferenceable(74) %0, ptr noundef nonnull align 8 dereferenceable(74) %1, ptr noundef %2) #4 align 2 {
  %4 = alloca ptr, align 8
  %5 = alloca ptr, align 8
  %6 = alloca ptr, align 8
  %7 = alloca i64, align 8
  %8 = alloca i64, align 8
  %9 = alloca i64, align 8
  %10 = alloca ptr, align 8
  %11 = alloca ptr, align 8
  %12 = alloca i32, align 4
  %13 = alloca ptr, align 8
  %14 = alloca ptr, align 8
  store ptr %0, ptr %4, align 8, !tbaa !4
  store ptr %1, ptr %5, align 8, !tbaa !4
  store ptr %2, ptr %6, align 8, !tbaa !89
  %15 = load ptr, ptr %4, align 8
  %16 = load ptr, ptr %5, align 8, !tbaa !4
  %17 = icmp eq ptr %15, %16
  br i1 %17, label %18, label %19

18:                                               ; preds = %3
  br label %138

19:                                               ; preds = %3
  call void @llvm.lifetime.start.p0(i64 8, ptr %7) #3
  call void @llvm.lifetime.start.p0(i64 8, ptr %8) #3
  call void @llvm.lifetime.start.p0(i64 8, ptr %9) #3
  %20 = load ptr, ptr %5, align 8, !tbaa !4
  %21 = getelementptr inbounds nuw %class.Effect, ptr %20, i32 0, i32 0
  %22 = call noundef i64 @_ZNKSt6vectorIPK8VariableSaIS2_EE4sizeEv(ptr noundef nonnull align 8 dereferenceable(24) %21) #3
  store i64 %22, ptr %7, align 8, !tbaa !22
  store i64 0, ptr %8, align 8, !tbaa !22
  br label %23

23:                                               ; preds = %68, %19
  %24 = load i64, ptr %8, align 8, !tbaa !22
  %25 = load i64, ptr %7, align 8, !tbaa !22
  %26 = icmp ult i64 %24, %25
  br i1 %26, label %27, label %71

27:                                               ; preds = %23
  call void @llvm.lifetime.start.p0(i64 8, ptr %10) #3
  %28 = load ptr, ptr %5, align 8, !tbaa !4
  %29 = getelementptr inbounds nuw %class.Effect, ptr %28, i32 0, i32 0
  %30 = load i64, ptr %8, align 8, !tbaa !22
  %31 = call noundef nonnull align 8 dereferenceable(8) ptr @_ZNKSt6vectorIPK8VariableSaIS2_EEixEm(ptr noundef nonnull align 8 dereferenceable(24) %29, i64 noundef %30) #3
  %32 = load ptr, ptr %31, align 8, !tbaa !30
  store ptr %32, ptr %10, align 8, !tbaa !30
  %33 = load ptr, ptr %10, align 8, !tbaa !30
  %34 = load ptr, ptr %33, align 8, !tbaa !85
  %35 = getelementptr inbounds ptr, ptr %34, i64 2
  %36 = load ptr, ptr %35, align 8
  %37 = call noundef zeroext i1 %36(ptr noundef nonnull align 8 dereferenceable(200) %33)
  br i1 %37, label %38, label %40

38:                                               ; preds = %27
  %39 = load ptr, ptr %10, align 8, !tbaa !30
  call void @_ZN6Effect8read_varEPK8Variable(ptr noundef nonnull align 8 dereferenceable(74) %15, ptr noundef %39)
  br label %67

40:                                               ; preds = %27
  store i64 0, ptr %9, align 8, !tbaa !22
  br label %41

41:                                               ; preds = %57, %40
  %42 = load i64, ptr %9, align 8, !tbaa !22
  %43 = call noundef i64 @_ZNKSt6vectorIPK5BlockSaIS2_EE4sizeEv(ptr noundef nonnull align 8 dereferenceable(24) %2) #3
  %44 = icmp ult i64 %42, %43
  br i1 %44, label %45, label %60

45:                                               ; preds = %41
  call void @llvm.lifetime.start.p0(i64 8, ptr %11) #3
  %46 = load i64, ptr %9, align 8, !tbaa !22
  %47 = call noundef nonnull align 8 dereferenceable(8) ptr @_ZNSt6vectorIPK5BlockSaIS2_EEixEm(ptr noundef nonnull align 8 dereferenceable(24) %2, i64 noundef %46) #3
  %48 = load ptr, ptr %47, align 8, !tbaa !91
  store ptr %48, ptr %11, align 8, !tbaa !91
  %49 = load ptr, ptr %11, align 8, !tbaa !91
  %50 = load ptr, ptr %10, align 8, !tbaa !30
  %51 = call noundef zeroext i1 @_ZNK5Block15is_var_on_stackEPK8Variable(ptr noundef nonnull align 8 dereferenceable(192) %49, ptr noundef %50)
  br i1 %51, label %52, label %53

52:                                               ; preds = %45
  store i32 5, ptr %12, align 4
  br label %54

53:                                               ; preds = %45
  store i32 0, ptr %12, align 4
  br label %54

54:                                               ; preds = %53, %52
  call void @llvm.lifetime.end.p0(i64 8, ptr %11) #3
  %55 = load i32, ptr %12, align 4
  switch i32 %55, label %139 [
    i32 0, label %56
    i32 5, label %60
  ]

56:                                               ; preds = %54
  br label %57

57:                                               ; preds = %56
  %58 = load i64, ptr %9, align 8, !tbaa !22
  %59 = add i64 %58, 1
  store i64 %59, ptr %9, align 8, !tbaa !22
  br label %41, !llvm.loop !93

60:                                               ; preds = %54, %41
  %61 = load i64, ptr %9, align 8, !tbaa !22
  %62 = call noundef i64 @_ZNKSt6vectorIPK5BlockSaIS2_EE4sizeEv(ptr noundef nonnull align 8 dereferenceable(24) %2) #3
  %63 = icmp ult i64 %61, %62
  br i1 %63, label %64, label %66

64:                                               ; preds = %60
  %65 = load ptr, ptr %10, align 8, !tbaa !30
  call void @_ZN6Effect8read_varEPK8Variable(ptr noundef nonnull align 8 dereferenceable(74) %15, ptr noundef %65)
  br label %66

66:                                               ; preds = %64, %60
  br label %67

67:                                               ; preds = %66, %38
  call void @llvm.lifetime.end.p0(i64 8, ptr %10) #3
  br label %68

68:                                               ; preds = %67
  %69 = load i64, ptr %8, align 8, !tbaa !22
  %70 = add i64 %69, 1
  store i64 %70, ptr %8, align 8, !tbaa !22
  br label %23, !llvm.loop !94

71:                                               ; preds = %23
  %72 = load ptr, ptr %5, align 8, !tbaa !4
  %73 = getelementptr inbounds nuw %class.Effect, ptr %72, i32 0, i32 1
  %74 = call noundef i64 @_ZNKSt6vectorIPK8VariableSaIS2_EE4sizeEv(ptr noundef nonnull align 8 dereferenceable(24) %73) #3
  store i64 %74, ptr %7, align 8, !tbaa !22
  store i64 0, ptr %8, align 8, !tbaa !22
  br label %75

75:                                               ; preds = %122, %71
  %76 = load i64, ptr %8, align 8, !tbaa !22
  %77 = load i64, ptr %7, align 8, !tbaa !22
  %78 = icmp ult i64 %76, %77
  br i1 %78, label %79, label %125

79:                                               ; preds = %75
  call void @llvm.lifetime.start.p0(i64 8, ptr %13) #3
  %80 = load ptr, ptr %5, align 8, !tbaa !4
  %81 = getelementptr inbounds nuw %class.Effect, ptr %80, i32 0, i32 1
  %82 = load i64, ptr %8, align 8, !tbaa !22
  %83 = call noundef nonnull align 8 dereferenceable(8) ptr @_ZNKSt6vectorIPK8VariableSaIS2_EEixEm(ptr noundef nonnull align 8 dereferenceable(24) %81, i64 noundef %82) #3
  %84 = load ptr, ptr %83, align 8, !tbaa !30
  store ptr %84, ptr %13, align 8, !tbaa !30
  %85 = load ptr, ptr %13, align 8, !tbaa !30
  %86 = load ptr, ptr %85, align 8, !tbaa !85
  %87 = getelementptr inbounds ptr, ptr %86, i64 2
  %88 = load ptr, ptr %87, align 8
  %89 = call noundef zeroext i1 %88(ptr noundef nonnull align 8 dereferenceable(200) %85)
  br i1 %89, label %90, label %93

90:                                               ; preds = %79
  %91 = load ptr, ptr %13, align 8, !tbaa !30
  call void @_ZN6Effect9write_varEPK8Variable(ptr noundef nonnull align 8 dereferenceable(74) %15, ptr noundef %91)
  %92 = getelementptr inbounds nuw %class.Effect, ptr %15, i32 0, i32 3
  store i8 0, ptr %92, align 8, !tbaa !9
  br label %121

93:                                               ; preds = %79
  store i64 0, ptr %9, align 8, !tbaa !22
  br label %94

94:                                               ; preds = %110, %93
  %95 = load i64, ptr %9, align 8, !tbaa !22
  %96 = call noundef i64 @_ZNKSt6vectorIPK5BlockSaIS2_EE4sizeEv(ptr noundef nonnull align 8 dereferenceable(24) %2) #3
  %97 = icmp ult i64 %95, %96
  br i1 %97, label %98, label %113

98:                                               ; preds = %94
  call void @llvm.lifetime.start.p0(i64 8, ptr %14) #3
  %99 = load i64, ptr %9, align 8, !tbaa !22
  %100 = call noundef nonnull align 8 dereferenceable(8) ptr @_ZNSt6vectorIPK5BlockSaIS2_EEixEm(ptr noundef nonnull align 8 dereferenceable(24) %2, i64 noundef %99) #3
  %101 = load ptr, ptr %100, align 8, !tbaa !91
  store ptr %101, ptr %14, align 8, !tbaa !91
  %102 = load ptr, ptr %14, align 8, !tbaa !91
  %103 = load ptr, ptr %13, align 8, !tbaa !30
  %104 = call noundef zeroext i1 @_ZNK5Block15is_var_on_stackEPK8Variable(ptr noundef nonnull align 8 dereferenceable(192) %102, ptr noundef %103)
  br i1 %104, label %105, label %106

105:                                              ; preds = %98
  store i32 11, ptr %12, align 4
  br label %107

106:                                              ; preds = %98
  store i32 0, ptr %12, align 4
  br label %107

107:                                              ; preds = %106, %105
  call void @llvm.lifetime.end.p0(i64 8, ptr %14) #3
  %108 = load i32, ptr %12, align 4
  switch i32 %108, label %139 [
    i32 0, label %109
    i32 11, label %113
  ]

109:                                              ; preds = %107
  br label %110

110:                                              ; preds = %109
  %111 = load i64, ptr %9, align 8, !tbaa !22
  %112 = add i64 %111, 1
  store i64 %112, ptr %9, align 8, !tbaa !22
  br label %94, !llvm.loop !95

113:                                              ; preds = %107, %94
  %114 = load i64, ptr %9, align 8, !tbaa !22
  %115 = call noundef i64 @_ZNKSt6vectorIPK5BlockSaIS2_EE4sizeEv(ptr noundef nonnull align 8 dereferenceable(24) %2) #3
  %116 = icmp ult i64 %114, %115
  br i1 %116, label %117, label %120

117:                                              ; preds = %113
  %118 = load ptr, ptr %13, align 8, !tbaa !30
  call void @_ZN6Effect9write_varEPK8Variable(ptr noundef nonnull align 8 dereferenceable(74) %15, ptr noundef %118)
  %119 = getelementptr inbounds nuw %class.Effect, ptr %15, i32 0, i32 3
  store i8 0, ptr %119, align 8, !tbaa !9
  br label %120

120:                                              ; preds = %117, %113
  br label %121

121:                                              ; preds = %120, %90
  call void @llvm.lifetime.end.p0(i64 8, ptr %13) #3
  br label %122

122:                                              ; preds = %121
  %123 = load i64, ptr %8, align 8, !tbaa !22
  %124 = add i64 %123, 1
  store i64 %124, ptr %8, align 8, !tbaa !22
  br label %75, !llvm.loop !96

125:                                              ; preds = %75
  %126 = load ptr, ptr %5, align 8, !tbaa !4
  %127 = getelementptr inbounds nuw %class.Effect, ptr %126, i32 0, i32 4
  %128 = load i8, ptr %127, align 1, !tbaa !17, !range !26, !noundef !27
  %129 = trunc i8 %128 to i1
  %130 = zext i1 %129 to i32
  %131 = getelementptr inbounds nuw %class.Effect, ptr %15, i32 0, i32 4
  %132 = load i8, ptr %131, align 1, !tbaa !17, !range !26, !noundef !27
  %133 = trunc i8 %132 to i1
  %134 = zext i1 %133 to i32
  %135 = and i32 %134, %130
  %136 = icmp ne i32 %135, 0
  %137 = zext i1 %136 to i8
  store i8 %137, ptr %131, align 1, !tbaa !17
  call void @llvm.lifetime.end.p0(i64 8, ptr %9) #3
  call void @llvm.lifetime.end.p0(i64 8, ptr %8) #3
  call void @llvm.lifetime.end.p0(i64 8, ptr %7) #3
  br label %138

138:                                              ; preds = %125, %18
  ret void

139:                                              ; preds = %107, %54
  unreachable
}