; Function Attrs: mustprogress uwtable
define dso_local void @_ZN6Effect19add_external_effectERKS_St6vectorIPK5BlockSaIS5_EE(ptr noundef nonnull align 8 captures(address) dereferenceable(74) %0, ptr noundef nonnull readonly align 8 captures(address) dereferenceable(74) %1, ptr noundef readonly captures(none) %2) local_unnamed_addr #5 align 2 {
  %4 = icmp eq ptr %0, %1
  br i1 %4, label %89, label %5

5:                                                ; preds = %3
  %6 = getelementptr inbounds nuw i8, ptr %1, i64 8
  %7 = load ptr, ptr %6, align 8, !tbaa !16
  %8 = load ptr, ptr %1, align 8, !tbaa !17
  %.not = icmp eq ptr %7, %8
  br i1 %.not, label %._crit_edge49, label %.lr.ph48

.lr.ph48:                                         ; preds = %5
  %9 = ptrtoint ptr %7 to i64
  %10 = ptrtoint ptr %8 to i64
  %11 = sub i64 %9, %10
  %12 = ashr exact i64 %11, 3
  %13 = getelementptr inbounds nuw i8, ptr %2, i64 8
  %umax = tail call i64 @llvm.umax.i64(i64 %12, i64 1)
  br label %14

14:                                               ; preds = %.lr.ph48, %42
  %.046 = phi i64 [ 0, %.lr.ph48 ], [ %43, %42 ]
  %15 = load ptr, ptr %1, align 8, !tbaa !17
  %16 = getelementptr inbounds nuw ptr, ptr %15, i64 %.046
  %17 = load ptr, ptr %16, align 8, !tbaa !23
  %18 = load ptr, ptr %17, align 8, !tbaa !77
  %19 = getelementptr inbounds nuw i8, ptr %18, i64 16
  %20 = load ptr, ptr %19, align 8
  %21 = tail call noundef zeroext i1 %20(ptr noundef nonnull align 8 dereferenceable(200) %17)
  br i1 %21, label %.sink.split, label %.preheader41

.preheader41:                                     ; preds = %14
  %22 = load ptr, ptr %13, align 8, !tbaa !81
  %23 = load ptr, ptr %2, align 8, !tbaa !84
  %.not60 = icmp eq ptr %22, %23
  br i1 %.not60, label %._crit_edge, label %.lr.ph

.lr.ph:                                           ; preds = %.preheader41, %28
  %24 = phi ptr [ %.pre65.pre, %28 ], [ %23, %.preheader41 ]
  %.03643 = phi i64 [ %29, %28 ], [ 0, %.preheader41 ]
  %25 = getelementptr inbounds nuw ptr, ptr %24, i64 %.03643
  %26 = load ptr, ptr %25, align 8, !tbaa !85
  %27 = tail call noundef zeroext i1 @_ZNK5Block15is_var_on_stackEPK8Variable(ptr noundef nonnull align 8 dereferenceable(192) %26, ptr noundef nonnull %17)
  %.pre.pre = load ptr, ptr %13, align 8, !tbaa !81
  %.pre65.pre = load ptr, ptr %2, align 8, !tbaa !84
  br i1 %27, label %._crit_edge, label %28

28:                                               ; preds = %.lr.ph
  %29 = add nuw i64 %.03643, 1
  %30 = ptrtoint ptr %.pre.pre to i64
  %31 = ptrtoint ptr %.pre65.pre to i64
  %32 = sub i64 %30, %31
  %33 = ashr exact i64 %32, 3
  %34 = icmp ult i64 %29, %33
  br i1 %34, label %.lr.ph, label %._crit_edge, !llvm.loop !87

._crit_edge:                                      ; preds = %28, %.lr.ph, %.preheader41
  %35 = phi ptr [ %22, %.preheader41 ], [ %.pre65.pre, %.lr.ph ], [ %.pre65.pre, %28 ]
  %36 = phi ptr [ %22, %.preheader41 ], [ %.pre.pre, %.lr.ph ], [ %.pre.pre, %28 ]
  %.036.lcssa = phi i64 [ 0, %.preheader41 ], [ %29, %28 ], [ %.03643, %.lr.ph ]
  %37 = ptrtoint ptr %36 to i64
  %38 = ptrtoint ptr %35 to i64
  %39 = sub i64 %37, %38
  %40 = ashr exact i64 %39, 3
  %41 = icmp ult i64 %.036.lcssa, %40
  br i1 %41, label %.sink.split, label %42

.sink.split:                                      ; preds = %._crit_edge, %14
  tail call void @_ZN6Effect8read_varEPK8Variable(ptr noundef nonnull align 8 dereferenceable(74) %0, ptr noundef nonnull %17)
  br label %42

42:                                               ; preds = %.sink.split, %._crit_edge
  %43 = add nuw i64 %.046, 1
  %exitcond.not = icmp eq i64 %43, %umax
  br i1 %exitcond.not, label %._crit_edge49, label %14, !llvm.loop !88

._crit_edge49:                                    ; preds = %42, %5
  %44 = getelementptr inbounds nuw i8, ptr %1, i64 24
  %45 = getelementptr inbounds nuw i8, ptr %1, i64 32
  %46 = load ptr, ptr %45, align 8, !tbaa !16
  %47 = load ptr, ptr %44, align 8, !tbaa !17
  %.not61 = icmp eq ptr %46, %47
  br i1 %.not61, label %._crit_edge59, label %.lr.ph58

.lr.ph58:                                         ; preds = %._crit_edge49
  %48 = ptrtoint ptr %46 to i64
  %49 = ptrtoint ptr %47 to i64
  %50 = sub i64 %48, %49
  %51 = ashr exact i64 %50, 3
  %52 = getelementptr inbounds nuw i8, ptr %2, i64 8
  %53 = getelementptr inbounds nuw i8, ptr %0, i64 72
  %umax63 = tail call i64 @llvm.umax.i64(i64 %51, i64 1)
  br label %54

54:                                               ; preds = %.lr.ph58, %82
  %.156 = phi i64 [ 0, %.lr.ph58 ], [ %83, %82 ]
  %55 = load ptr, ptr %44, align 8, !tbaa !17
  %56 = getelementptr inbounds nuw ptr, ptr %55, i64 %.156
  %57 = load ptr, ptr %56, align 8, !tbaa !23
  %58 = load ptr, ptr %57, align 8, !tbaa !77
  %59 = getelementptr inbounds nuw i8, ptr %58, i64 16
  %60 = load ptr, ptr %59, align 8
  %61 = tail call noundef zeroext i1 %60(ptr noundef nonnull align 8 dereferenceable(200) %57)
  br i1 %61, label %.sink.split68, label %.preheader

.preheader:                                       ; preds = %54
  %62 = load ptr, ptr %52, align 8, !tbaa !81
  %63 = load ptr, ptr %2, align 8, !tbaa !84
  %.not62 = icmp eq ptr %62, %63
  br i1 %.not62, label %._crit_edge52, label %.lr.ph51

.lr.ph51:                                         ; preds = %.preheader, %68
  %64 = phi ptr [ %.pre67.pre, %68 ], [ %63, %.preheader ]
  %.13750 = phi i64 [ %69, %68 ], [ 0, %.preheader ]
  %65 = getelementptr inbounds nuw ptr, ptr %64, i64 %.13750
  %66 = load ptr, ptr %65, align 8, !tbaa !85
  %67 = tail call noundef zeroext i1 @_ZNK5Block15is_var_on_stackEPK8Variable(ptr noundef nonnull align 8 dereferenceable(192) %66, ptr noundef nonnull %57)
  %.pre66.pre = load ptr, ptr %52, align 8, !tbaa !81
  %.pre67.pre = load ptr, ptr %2, align 8, !tbaa !84
  br i1 %67, label %._crit_edge52, label %68

68:                                               ; preds = %.lr.ph51
  %69 = add nuw i64 %.13750, 1
  %70 = ptrtoint ptr %.pre66.pre to i64
  %71 = ptrtoint ptr %.pre67.pre to i64
  %72 = sub i64 %70, %71
  %73 = ashr exact i64 %72, 3
  %74 = icmp ult i64 %69, %73
  br i1 %74, label %.lr.ph51, label %._crit_edge52, !llvm.loop !89

._crit_edge52:                                    ; preds = %68, %.lr.ph51, %.preheader
  %75 = phi ptr [ %62, %.preheader ], [ %.pre67.pre, %.lr.ph51 ], [ %.pre67.pre, %68 ]
  %76 = phi ptr [ %62, %.preheader ], [ %.pre66.pre, %.lr.ph51 ], [ %.pre66.pre, %68 ]
  %.137.lcssa = phi i64 [ 0, %.preheader ], [ %69, %68 ], [ %.13750, %.lr.ph51 ]
  %77 = ptrtoint ptr %76 to i64
  %78 = ptrtoint ptr %75 to i64
  %79 = sub i64 %77, %78
  %80 = ashr exact i64 %79, 3
  %81 = icmp ult i64 %.137.lcssa, %80
  br i1 %81, label %.sink.split68, label %82

.sink.split68:                                    ; preds = %._crit_edge52, %54
  tail call void @_ZN6Effect9write_varEPK8Variable(ptr noundef nonnull align 8 dereferenceable(74) %0, ptr noundef nonnull %57)
  store i8 0, ptr %53, align 8, !tbaa !4
  br label %82

82:                                               ; preds = %.sink.split68, %._crit_edge52
  %83 = add nuw i64 %.156, 1
  %exitcond64.not = icmp eq i64 %83, %umax63
  br i1 %exitcond64.not, label %._crit_edge59, label %54, !llvm.loop !90

._crit_edge59:                                    ; preds = %82, %._crit_edge49
  %84 = getelementptr inbounds nuw i8, ptr %1, i64 73
  %85 = load i8, ptr %84, align 1, !tbaa !15, !range !21, !noundef !22
  %86 = getelementptr inbounds nuw i8, ptr %0, i64 73
  %87 = load i8, ptr %86, align 1, !tbaa !15, !range !21, !noundef !22
  %88 = and i8 %87, %85
  store i8 %88, ptr %86, align 1, !tbaa !15
  br label %89

89:                                               ; preds = %3, %._crit_edge59
  ret void
}